target datalayout = "e-m:e-p270:32:32-p271:32:32-p272:64:64-i64:64-i128:128-f80:128-n8:16:32:64-S128"
target triple = "x86_64-pc-linux-gnu"

%class.LogTagSet = type { ptr, i64, [5 x i32], [4 x i8], %class.LogOutputList, %class.LogDecorators, ptr }
%class.LogOutputList = type <{ [6 x ptr], i32, [4 x i8] }>
%class.LogDecorators = type { i32 }
%class.G1HeapRegion = type { ptr, ptr, ptr, ptr, ptr, ptr, i32, %class.G1HeapRegionType, ptr, i32, ptr, ptr, ptr, i64, i32, ptr, i32, i32, i64 }
%class.G1HeapRegionType = type { i32 }
%class.G1Policy = type { ptr, %class.G1Predictions, ptr, %class.G1RemSetTrackingPolicy, ptr, %class.G1OldGenAllocationTracker, ptr, ptr, double, i32, i32, i32, ptr, ptr, double, i32, %class.G1YoungGenSizer, i32, i64, i64, %class.G1ConcurrentStartToMixedTimeTracker, ptr, ptr, ptr, ptr, double, double, i32, i32, %class.AgeTable }
%class.G1Predictions = type { double }
%class.G1RemSetTrackingPolicy = type { i8 }
%class.G1OldGenAllocationTracker = type { i64, i64, i64, i64, i64 }
%class.G1YoungGenSizer = type { ptr, i32, i8, i32, i32 }
%class.G1ConcurrentStartToMixedTimeTracker = type { i8, double, double, double }
%class.AgeTable = type { [16 x i64], i8, [16 x ptr] }
%class.GrowableArrayBase = type { i32, i32 }
%class.GrowableArrayMetadata = type { i64 }
%class.G1CollectionCandidateRegionList = type { %class.GrowableArray.2 }
%class.GrowableArray.2 = type { %class.GrowableArrayWithAllocator.3, %class.GrowableArrayMetadata }
%class.GrowableArrayWithAllocator.3 = type { %class.GrowableArrayView.4 }
%class.GrowableArrayView.4 = type { %class.GrowableArrayBase, ptr }
%class.GrowableArrayIterator = type <{ ptr, i32, [4 x i8] }>

@.str.56 = private unnamed_addr constant [69 x i8] c"Prediction %.3fms for region %u does not fit remaining time: %.3fms.\00", align 1
@.str.57 = private unnamed_addr constant [84 x i8] c"Prepared %u regions out of %u for optional evacuation. Total predicted time: %.3fms\00", align 1
@_ZN16LogTagSetMappingILN6LogTag4typeE49ELS1_40ELS1_29ELS1_0ELS1_0ELS1_0EE7_tagsetE = linkonce_odr hidden global %class.LogTagSet zeroinitializer, comdat, align 8

; Function Attrs: mustprogress nounwind uwtable
define linkonce_odr hidden noundef zeroext i1 @_ZNK13LogOutputList8is_levelEN8LogLevel4typeE(ptr noundef nonnull align 8 dereferenceable(52) %0, i32 noundef %1) #1 comdat align 2 {
  %3 = alloca ptr, align 8
  %4 = alloca i32, align 4
  store ptr %0, ptr %3, align 8
  store i32 %1, ptr %4, align 4
  %5 = load ptr, ptr %3, align 8
  %6 = getelementptr inbounds %class.LogOutputList, ptr %5, i32 0, i32 0
  %7 = load i32, ptr %4, align 4
  %8 = zext i32 %7 to i64
  %9 = getelementptr inbounds [6 x ptr], ptr %6, i64 0, i64 %8
  %10 = load volatile ptr, ptr %9, align 8
  %11 = icmp ne ptr %10, null
  ret i1 %11
}

; Function Attrs: mustprogress nounwind uwtable
define linkonce_odr hidden void @_ZN21GrowableArrayIteratorIP12G1HeapRegionEC2EPK17GrowableArrayViewIS1_Ei(ptr noundef nonnull align 8 dereferenceable(12) %0, ptr noundef %1, i32 noundef %2) unnamed_addr #1 comdat align 2 {
  %4 = alloca ptr, align 8
  %5 = alloca ptr, align 8
  %6 = alloca i32, align 4
  store ptr %0, ptr %4, align 8
  store ptr %1, ptr %5, align 8
  store i32 %2, ptr %6, align 4
  %7 = load ptr, ptr %4, align 8
  %8 = getelementptr inbounds %class.GrowableArrayIterator, ptr %7, i32 0, i32 0
  %9 = load ptr, ptr %5, align 8
  store ptr %9, ptr %8, align 8
  %10 = getelementptr inbounds %class.GrowableArrayIterator, ptr %7, i32 0, i32 1
  %11 = load i32, ptr %6, align 4
  store i32 %11, ptr %10, align 8
  ret void
}

; Function Attrs: mustprogress nounwind uwtable
define linkonce_odr hidden noundef i32 @_ZNK17GrowableArrayBase6lengthEv(ptr noundef nonnull align 4 dereferenceable(8) %0) #1 comdat align 2 {
  %2 = alloca ptr, align 8
  store ptr %0, ptr %2, align 8
  %3 = load ptr, ptr %2, align 8
  %4 = getelementptr inbounds %class.GrowableArrayBase, ptr %3, i32 0, i32 0
  %5 = load i32, ptr %4, align 4
  ret i32 %5
}

; Function Attrs: mustprogress nounwind uwtable
define linkonce_odr hidden noundef zeroext i1 @_ZNK9LogTagSet8is_levelEN8LogLevel4typeE(ptr noundef nonnull align 8 dereferenceable(112) %0, i32 noundef %1) #1 comdat align 2 {
  %3 = alloca ptr, align 8
  %4 = alloca i32, align 4
  store ptr %0, ptr %3, align 8
  store i32 %1, ptr %4, align 4
  %5 = load ptr, ptr %3, align 8
  %6 = getelementptr inbounds %class.LogTagSet, ptr %5, i32 0, i32 4
  %7 = load i32, ptr %4, align 4
  %8 = call noundef zeroext i1 @_ZNK13LogOutputList8is_levelEN8LogLevel4typeE(ptr noundef nonnull align 8 dereferenceable(52) %6, i32 noundef %7)
  ret i1 %8
}

; Function Attrs: mustprogress nounwind uwtable
define linkonce_odr hidden noundef nonnull align 8 dereferenceable(112) ptr @_ZN16LogTagSetMappingILN6LogTag4typeE49ELS1_40ELS1_29ELS1_0ELS1_0ELS1_0EE6tagsetEv() #1 comdat align 2 {
  ret ptr @_ZN16LogTagSetMappingILN6LogTag4typeE49ELS1_40ELS1_29ELS1_0ELS1_0ELS1_0EE7_tagsetE
}

; Function Attrs: mustprogress nounwind uwtable
define hidden noundef double @_ZNK8G1Policy27predict_region_copy_time_msEP12G1HeapRegionb(ptr noundef nonnull align 8 dereferenceable(552) %0, ptr noundef %1, i1 noundef zeroext %2) #1 align 2 {
  %4 = alloca ptr, align 8
  %5 = alloca ptr, align 8
  %6 = alloca i8, align 1
  %7 = alloca i64, align 8
  store ptr %0, ptr %4, align 8
  store ptr %1, ptr %5, align 8
  %8 = zext i1 %2 to i8
  store i8 %8, ptr %6, align 1
  %9 = load ptr, ptr %4, align 8
  %10 = load ptr, ptr %5, align 8
  %11 = call noundef i64 @_ZNK8G1Policy21predict_bytes_to_copyEP12G1HeapRegion(ptr noundef nonnull align 8 dereferenceable(552) %9, ptr noundef %10)
  store i64 %11, ptr %7, align 8
  %12 = getelementptr inbounds %class.G1Policy, ptr %9, i32 0, i32 2
  %13 = load ptr, ptr %12, align 8
  %14 = load i64, ptr %7, align 8
  %15 = load i8, ptr %6, align 1
  %16 = trunc i8 %15 to i1
  %17 = call noundef double @_ZNK11G1Analytics27predict_object_copy_time_msEmb(ptr noundef nonnull align 8 dereferenceable(2048) %13, i64 noundef %14, i1 noundef zeroext %16)
  ret double %17
}

; Function Attrs: mustprogress nounwind uwtable
define linkonce_odr hidden noundef nonnull align 8 dereferenceable(8) ptr @_ZNK17GrowableArrayViewIP12G1HeapRegionE2atEi(ptr noundef nonnull align 8 dereferenceable(16) %0, i32 noundef %1) #1 comdat align 2 {
  %3 = alloca ptr, align 8
  %4 = alloca i32, align 4
  store ptr %0, ptr %3, align 8
  store i32 %1, ptr %4, align 4
  %5 = load ptr, ptr %3, align 8
  %6 = getelementptr inbounds %class.GrowableArrayView.4, ptr %5, i32 0, i32 1
  %7 = load ptr, ptr %6, align 8
  %8 = load i32, ptr %4, align 4
  %9 = sext i32 %8 to i64
  %10 = getelementptr inbounds ptr, ptr %7, i64 %9
  ret ptr %10
}

; Function Attrs: mustprogress nounwind uwtable
define linkonce_odr hidden { ptr, i32 } @_ZNK17GrowableArrayViewIP12G1HeapRegionE3endEv(ptr noundef nonnull align 8 dereferenceable(16) %0) #1 comdat align 2 {
  %2 = alloca %class.GrowableArrayIterator, align 8
  %3 = alloca ptr, align 8
  store ptr %0, ptr %3, align 8
  %4 = load ptr, ptr %3, align 8
  %5 = call noundef i32 @_ZNK17GrowableArrayBase6lengthEv(ptr noundef nonnull align 4 dereferenceable(8) %4)
  call void @_ZN21GrowableArrayIteratorIP12G1HeapRegionEC2EPK17GrowableArrayViewIS1_Ei(ptr noundef nonnull align 8 dereferenceable(12) %2, ptr noundef %4, i32 noundef %5)
  %6 = load { ptr, i32 }, ptr %2, align 8
  ret { ptr, i32 } %6
}

; Function Attrs: mustprogress nounwind uwtable
define linkonce_odr hidden { ptr, i32 } @_ZNK17GrowableArrayViewIP12G1HeapRegionE5beginEv(ptr noundef nonnull align 8 dereferenceable(16) %0) #1 comdat align 2 {
  %2 = alloca %class.GrowableArrayIterator, align 8
  %3 = alloca ptr, align 8
  store ptr %0, ptr %3, align 8
  %4 = load ptr, ptr %3, align 8
  call void @_ZN21GrowableArrayIteratorIP12G1HeapRegionEC2EPK17GrowableArrayViewIS1_Ei(ptr noundef nonnull align 8 dereferenceable(12) %2, ptr noundef %4, i32 noundef 0)
  %5 = load { ptr, i32 }, ptr %2, align 8
  ret { ptr, i32 } %5
}

; Function Attrs: mustprogress nounwind uwtable
define linkonce_odr hidden noundef i32 @_ZNK31G1CollectionCandidateRegionList6lengthEv(ptr noundef nonnull align 8 dereferenceable(24) %0) #1 comdat align 2 {
  %2 = alloca ptr, align 8
  store ptr %0, ptr %2, align 8
  %3 = load ptr, ptr %2, align 8
  %4 = getelementptr inbounds %class.G1CollectionCandidateRegionList, ptr %3, i32 0, i32 0
  %5 = call noundef i32 @_ZNK17GrowableArrayBase6lengthEv(ptr noundef nonnull align 4 dereferenceable(8) %4)
  ret i32 %5
}

; Function Attrs: mustprogress nounwind uwtable
define linkonce_odr hidden noundef nonnull align 8 dereferenceable(12) ptr @_ZN21GrowableArrayIteratorIP12G1HeapRegionEppEv(ptr noundef nonnull align 8 dereferenceable(12) %0) #1 comdat align 2 {
  %2 = alloca ptr, align 8
  store ptr %0, ptr %2, align 8
  %3 = load ptr, ptr %2, align 8
  %4 = getelementptr inbounds %class.GrowableArrayIterator, ptr %3, i32 0, i32 1
  %5 = load i32, ptr %4, align 8
  %6 = add nsw i32 %5, 1
  store i32 %6, ptr %4, align 8
  ret ptr %3
}

; Function Attrs: mustprogress nounwind uwtable
define linkonce_odr hidden noundef i32 @_ZNK12G1HeapRegion9hrm_indexEv(ptr noundef nonnull align 8 dereferenceable(136) %0) #1 comdat align 2 {
  %2 = alloca ptr, align 8
  store ptr %0, ptr %2, align 8
  %3 = load ptr, ptr %2, align 8
  %4 = getelementptr inbounds %class.G1HeapRegion, ptr %3, i32 0, i32 6
  %5 = load i32, ptr %4, align 8
  ret i32 %5
}

; Function Attrs: mustprogress nounwind uwtable
define linkonce_odr hidden noundef zeroext i1 @_ZN7LogImplILN6LogTag4typeE49ELS1_40ELS1_29ELS1_0ELS1_0ELS1_0EE8is_levelEN8LogLevel4typeE(i32 noundef %0) #1 comdat align 2 {
  %2 = alloca i32, align 4
  store i32 %0, ptr %2, align 4
  %3 = call noundef nonnull align 8 dereferenceable(112) ptr @_ZN16LogTagSetMappingILN6LogTag4typeE49ELS1_40ELS1_29ELS1_0ELS1_0ELS1_0EE6tagsetEv()
  %4 = load i32, ptr %2, align 4
  %5 = call noundef zeroext i1 @_ZNK9LogTagSet8is_levelEN8LogLevel4typeE(ptr noundef nonnull align 8 dereferenceable(112) %3, i32 noundef %4)
  ret i1 %5
}

; Function Attrs: mustprogress nounwind uwtable
define hidden noundef double @_ZNK8G1Policy28predict_region_total_time_msEP12G1HeapRegionb(ptr noundef nonnull align 8 dereferenceable(552) %0, ptr noundef %1, i1 noundef zeroext %2) #1 align 2 {
  %4 = alloca ptr, align 8
  %5 = alloca ptr, align 8
  %6 = alloca i8, align 1
  store ptr %0, ptr %4, align 8
  store ptr %1, ptr %5, align 8
  %7 = zext i1 %2 to i8
  store i8 %7, ptr %6, align 1
  %8 = load ptr, ptr %4, align 8
  %9 = load ptr, ptr %5, align 8
  %10 = load i8, ptr %6, align 1
  %11 = trunc i8 %10 to i1
  %12 = call noundef double @_ZNK8G1Policy31predict_region_non_copy_time_msEP12G1HeapRegionb(ptr noundef nonnull align 8 dereferenceable(552) %8, ptr noundef %9, i1 noundef zeroext %11)
  %13 = load ptr, ptr %5, align 8
  %14 = load i8, ptr %6, align 1
  %15 = trunc i8 %14 to i1
  %16 = call noundef double @_ZNK8G1Policy27predict_region_copy_time_msEP12G1HeapRegionb(ptr noundef nonnull align 8 dereferenceable(552) %8, ptr noundef %13, i1 noundef zeroext %15)
  %17 = fadd double %12, %16
  ret double %17
}

; Function Attrs: mustprogress nounwind uwtable
define linkonce_odr hidden noundef ptr @_ZN21GrowableArrayIteratorIP12G1HeapRegionEdeEv(ptr noundef nonnull align 8 dereferenceable(12) %0) #1 comdat align 2 {
  %2 = alloca ptr, align 8
  store ptr %0, ptr %2, align 8
  %3 = load ptr, ptr %2, align 8
  %4 = getelementptr inbounds %class.GrowableArrayIterator, ptr %3, i32 0, i32 0
  %5 = load ptr, ptr %4, align 8
  %6 = getelementptr inbounds %class.GrowableArrayIterator, ptr %3, i32 0, i32 1
  %7 = load i32, ptr %6, align 8
  %8 = call noundef nonnull align 8 dereferenceable(8) ptr @_ZNK17GrowableArrayViewIP12G1HeapRegionE2atEi(ptr noundef nonnull align 8 dereferenceable(16) %5, i32 noundef %7)
  %9 = load ptr, ptr %8, align 8
  ret ptr %9
}

; Function Attrs: mustprogress nounwind uwtable
define linkonce_odr hidden noundef zeroext i1 @_ZN21GrowableArrayIteratorIP12G1HeapRegionEneERKS2_(ptr noundef nonnull align 8 dereferenceable(12) %0, ptr noundef nonnull align 8 dereferenceable(12) %1) #1 comdat align 2 {
  %3 = alloca ptr, align 8
  %4 = alloca ptr, align 8
  store ptr %0, ptr %3, align 8
  store ptr %1, ptr %4, align 8
  %5 = load ptr, ptr %3, align 8
  %6 = getelementptr inbounds %class.GrowableArrayIterator, ptr %5, i32 0, i32 1
  %7 = load i32, ptr %6, align 8
  %8 = load ptr, ptr %4, align 8
  %9 = getelementptr inbounds %class.GrowableArrayIterator, ptr %8, i32 0, i32 1
  %10 = load i32, ptr %9, align 8
  %11 = icmp ne i32 %7, %10
  ret i1 %11
}

; Function Attrs: mustprogress nounwind uwtable
define linkonce_odr hidden { ptr, i32 } @_ZNK31G1CollectionCandidateRegionList3endEv(ptr noundef nonnull align 8 dereferenceable(24) %0) #1 comdat align 2 {
  %2 = alloca %class.GrowableArrayIterator, align 8
  %3 = alloca ptr, align 8
  store ptr %0, ptr %3, align 8
  %4 = load ptr, ptr %3, align 8
  %5 = getelementptr inbounds %class.G1CollectionCandidateRegionList, ptr %4, i32 0, i32 0
  %6 = call { ptr, i32 } @_ZNK17GrowableArrayViewIP12G1HeapRegionE3endEv(ptr noundef nonnull align 8 dereferenceable(16) %5)
  %7 = getelementptr inbounds { ptr, i32 }, ptr %2, i32 0, i32 0
  %8 = extractvalue { ptr, i32 } %6, 0
  store ptr %8, ptr %7, align 8
  %9 = getelementptr inbounds { ptr, i32 }, ptr %2, i32 0, i32 1
  %10 = extractvalue { ptr, i32 } %6, 1
  store i32 %10, ptr %9, align 8
  %11 = load { ptr, i32 }, ptr %2, align 8
  ret { ptr, i32 } %11
}

; Function Attrs: mustprogress nounwind uwtable
define linkonce_odr hidden { ptr, i32 } @_ZNK31G1CollectionCandidateRegionList5beginEv(ptr noundef nonnull align 8 dereferenceable(24) %0) #1 comdat align 2 {
  %2 = alloca %class.GrowableArrayIterator, align 8
  %3 = alloca ptr, align 8
  store ptr %0, ptr %3, align 8
  %4 = load ptr, ptr %3, align 8
  %5 = getelementptr inbounds %class.G1CollectionCandidateRegionList, ptr %4, i32 0, i32 0
  %6 = call { ptr, i32 } @_ZNK17GrowableArrayViewIP12G1HeapRegionE5beginEv(ptr noundef nonnull align 8 dereferenceable(16) %5)
  %7 = getelementptr inbounds { ptr, i32 }, ptr %2, i32 0, i32 0
  %8 = extractvalue { ptr, i32 } %6, 0
  store ptr %8, ptr %7, align 8
  %9 = getelementptr inbounds { ptr, i32 }, ptr %2, i32 0, i32 1
  %10 = extractvalue { ptr, i32 } %6, 1
  store i32 %10, ptr %9, align 8
  %11 = load { ptr, i32 }, ptr %2, align 8
  ret { ptr, i32 } %11
}

; Function Attrs: mustprogress nounwind uwtable
define hidden void @_ZN8G1Policy41calculate_optional_collection_set_regionsEP31G1CollectionCandidateRegionListdS1_(ptr noundef nonnull align 8 dereferenceable(552) %0, ptr noundef %1, double noundef %2, ptr noundef %3) #1 align 2 {
  %5 = alloca ptr, align 8
  %6 = alloca ptr, align 8
  %7 = alloca double, align 8
  %8 = alloca ptr, align 8
  %9 = alloca double, align 8
  %10 = alloca ptr, align 8
  %11 = alloca %class.GrowableArrayIterator, align 8
  %12 = alloca %class.GrowableArrayIterator, align 8
  %13 = alloca ptr, align 8
  %14 = alloca double, align 8
  store ptr %0, ptr %5, align 8
  store ptr %1, ptr %6, align 8
  store double %2, ptr %7, align 8
  store ptr %3, ptr %8, align 8
  %15 = load ptr, ptr %5, align 8
  store double 0.000000e+00, ptr %9, align 8
  %16 = load ptr, ptr %6, align 8
  store ptr %16, ptr %10, align 8
  %17 = load ptr, ptr %10, align 8
  %18 = call { ptr, i32 } @_ZNK31G1CollectionCandidateRegionList5beginEv(ptr noundef nonnull align 8 dereferenceable(24) %17)
  %19 = getelementptr inbounds { ptr, i32 }, ptr %11, i32 0, i32 0
  %20 = extractvalue { ptr, i32 } %18, 0
  store ptr %20, ptr %19, align 8
  %21 = getelementptr inbounds { ptr, i32 }, ptr %11, i32 0, i32 1
  %22 = extractvalue { ptr, i32 } %18, 1
  store i32 %22, ptr %21, align 8
  %23 = load ptr, ptr %10, align 8
  %24 = call { ptr, i32 } @_ZNK31G1CollectionCandidateRegionList3endEv(ptr noundef nonnull align 8 dereferenceable(24) %23)
  %25 = getelementptr inbounds { ptr, i32 }, ptr %12, i32 0, i32 0
  %26 = extractvalue { ptr, i32 } %24, 0
  store ptr %26, ptr %25, align 8
  %27 = getelementptr inbounds { ptr, i32 }, ptr %12, i32 0, i32 1
  %28 = extractvalue { ptr, i32 } %24, 1
  store i32 %28, ptr %27, align 8
  br label %29

29:                                               ; preds = %56, %4
  %30 = call noundef zeroext i1 @_ZN21GrowableArrayIteratorIP12G1HeapRegionEneERKS2_(ptr noundef nonnull align 8 dereferenceable(12) %11, ptr noundef nonnull align 8 dereferenceable(12) %12)
  br i1 %30, label %31, label %58

31:                                               ; preds = %29
  %32 = call noundef ptr @_ZN21GrowableArrayIteratorIP12G1HeapRegionEdeEv(ptr noundef nonnull align 8 dereferenceable(12) %11)
  store ptr %32, ptr %13, align 8
  %33 = load ptr, ptr %13, align 8
  %34 = call noundef double @_ZNK8G1Policy28predict_region_total_time_msEP12G1HeapRegionb(ptr noundef nonnull align 8 dereferenceable(552) %15, ptr noundef %33, i1 noundef zeroext false)
  store double %34, ptr %14, align 8
  %35 = load double, ptr %14, align 8
  %36 = load double, ptr %7, align 8
  %37 = fcmp ogt double %35, %36
  br i1 %37, label %38, label %47

38:                                               ; preds = %31
  %39 = call noundef zeroext i1 @_ZN7LogImplILN6LogTag4typeE49ELS1_40ELS1_29ELS1_0ELS1_0ELS1_0EE8is_levelEN8LogLevel4typeE(i32 noundef 2)
  br i1 %39, label %41, label %40

40:                                               ; preds = %38
  br label %46

41:                                               ; preds = %38
  %42 = load double, ptr %14, align 8
  %43 = load ptr, ptr %13, align 8
  %44 = call noundef i32 @_ZNK12G1HeapRegion9hrm_indexEv(ptr noundef nonnull align 8 dereferenceable(136) %43)
  %45 = load double, ptr %7, align 8
  call void (ptr, ...) @_ZN7LogImplILN6LogTag4typeE49ELS1_40ELS1_29ELS1_0ELS1_0ELS1_0EE5writeILN8LogLevel4typeE2EEEvPKcz(ptr noundef @.str.56, double noundef %42, i32 noundef %44, double noundef %45)
  br label %46

46:                                               ; preds = %41, %40
  br label %58

47:                                               ; preds = %31
  %48 = load double, ptr %14, align 8
  %49 = load double, ptr %9, align 8
  %50 = fadd double %49, %48
  store double %50, ptr %9, align 8
  %51 = load double, ptr %14, align 8
  %52 = load double, ptr %7, align 8
  %53 = fsub double %52, %51
  store double %53, ptr %7, align 8
  %54 = load ptr, ptr %8, align 8
  %55 = load ptr, ptr %13, align 8
  call void @_ZN31G1CollectionCandidateRegionList6appendEP12G1HeapRegion(ptr noundef nonnull align 8 dereferenceable(24) %54, ptr noundef %55)
  br label %56

56:                                               ; preds = %47
  %57 = call noundef nonnull align 8 dereferenceable(12) ptr @_ZN21GrowableArrayIteratorIP12G1HeapRegionEppEv(ptr noundef nonnull align 8 dereferenceable(12) %11)
  br label %29

58:                                               ; preds = %46, %29
  %59 = call noundef zeroext i1 @_ZN7LogImplILN6LogTag4typeE49ELS1_40ELS1_29ELS1_0ELS1_0ELS1_0EE8is_levelEN8LogLevel4typeE(i32 noundef 2)
  br i1 %59, label %61, label %60

60:                                               ; preds = %58
  br label %67

61:                                               ; preds = %58
  %62 = load ptr, ptr %8, align 8
  %63 = call noundef i32 @_ZNK31G1CollectionCandidateRegionList6lengthEv(ptr noundef nonnull align 8 dereferenceable(24) %62)
  %64 = load ptr, ptr %6, align 8
  %65 = call noundef i32 @_ZNK31G1CollectionCandidateRegionList6lengthEv(ptr noundef nonnull align 8 dereferenceable(24) %64)
  %66 = load double, ptr %9, align 8
  call void (ptr, ...) @_ZN7LogImplILN6LogTag4typeE49ELS1_40ELS1_29ELS1_0ELS1_0ELS1_0EE5writeILN8LogLevel4typeE2EEEvPKcz(ptr noundef @.str.57, i32 noundef %63, i32 noundef %65, double noundef %66)
  br label %67

67:                                               ; preds = %61, %60
  ret void
}