; Function Attrs: mustprogress nounwind uwtable
define hidden void @_ZN8G1Policy41calculate_optional_collection_set_regionsEP31G1CollectionCandidateRegionListdS1_(ptr nocapture noundef nonnull readonly align 8 dereferenceable(552) %0, ptr nocapture noundef readonly %1, double noundef %2, ptr noundef %3) local_unnamed_addr #1 align 2 {
  %5 = load i32, ptr %1, align 4
  %.not32 = icmp eq i32 %5, 0
  br i1 %.not32, label %.loopexit, label %.lr.ph

.lr.ph:                                           ; preds = %4
  %6 = getelementptr inbounds i8, ptr %1, i64 8
  %7 = getelementptr inbounds i8, ptr %0, i64 16
  %8 = zext i32 %5 to i64
  br label %9

9:                                                ; preds = %.lr.ph, %24
  %indvars.iv = phi i64 [ 0, %.lr.ph ], [ %indvars.iv.next, %24 ]
  %.035 = phi double [ %2, %.lr.ph ], [ %26, %24 ]
  %.01934 = phi double [ 0.000000e+00, %.lr.ph ], [ %25, %24 ]
  %10 = load ptr, ptr %6, align 8
  %11 = getelementptr inbounds ptr, ptr %10, i64 %indvars.iv
  %12 = load ptr, ptr %11, align 8
  %13 = tail call noundef double @_ZNK8G1Policy31predict_region_non_copy_time_msEP12G1HeapRegionb(ptr noundef nonnull readonly align 8 dereferenceable(552) %0, ptr noundef %12, i1 noundef zeroext false)
  %14 = tail call noundef i64 @_ZNK8G1Policy21predict_bytes_to_copyEP12G1HeapRegion(ptr noundef nonnull readonly align 8 dereferenceable(552) %0, ptr noundef %12)
  %15 = load ptr, ptr %7, align 8
  %16 = tail call noundef double @_ZNK11G1Analytics27predict_object_copy_time_msEmb(ptr noundef nonnull align 8 dereferenceable(2048) %15, i64 noundef %14, i1 noundef zeroext false) #18
  %17 = fadd double %13, %16
  %18 = fcmp ogt double %17, %.035
  br i1 %18, label %19, label %24

19:                                               ; preds = %9
  %20 = load volatile ptr, ptr getelementptr inbounds (i8, ptr @_ZN16LogTagSetMappingILN6LogTag4typeE49ELS1_40ELS1_29ELS1_0ELS1_0ELS1_0EE7_tagsetE, i64 56), align 8
  %.not26 = icmp eq ptr %20, null
  br i1 %.not26, label %.loopexit, label %21

21:                                               ; preds = %19
  %22 = getelementptr inbounds i8, ptr %12, i64 48
  %23 = load i32, ptr %22, align 8
  tail call void (ptr, ...) @_ZN7LogImplILN6LogTag4typeE49ELS1_40ELS1_29ELS1_0ELS1_0ELS1_0EE5writeILN8LogLevel4typeE2EEEvPKcz(ptr noundef nonnull @.str.56, double noundef %17, i32 noundef %23, double noundef %.035)
  br label %.loopexit

24:                                               ; preds = %9
  %25 = fadd double %.01934, %17
  %26 = fsub double %.035, %17
  tail call void @_ZN31G1CollectionCandidateRegionList6appendEP12G1HeapRegion(ptr noundef nonnull align 8 dereferenceable(24) %3, ptr noundef %12) #18
  %indvars.iv.next = add nuw nsw i64 %indvars.iv, 1
  %.not = icmp eq i64 %indvars.iv.next, %8
  br i1 %.not, label %.loopexit, label %9

.loopexit:                                        ; preds = %24, %4, %21, %19
  %.01930 = phi double [ %.01934, %21 ], [ %.01934, %19 ], [ 0.000000e+00, %4 ], [ %25, %24 ]
  %27 = load volatile ptr, ptr getelementptr inbounds (i8, ptr @_ZN16LogTagSetMappingILN6LogTag4typeE49ELS1_40ELS1_29ELS1_0ELS1_0ELS1_0EE7_tagsetE, i64 56), align 8
  %.not27 = icmp eq ptr %27, null
  br i1 %.not27, label %31, label %28

28:                                               ; preds = %.loopexit
  %29 = load i32, ptr %3, align 4
  %30 = load i32, ptr %1, align 4
  tail call void (ptr, ...) @_ZN7LogImplILN6LogTag4typeE49ELS1_40ELS1_29ELS1_0ELS1_0ELS1_0EE5writeILN8LogLevel4typeE2EEEvPKcz(ptr noundef nonnull @.str.57, i32 noundef %29, i32 noundef %30, double noundef %.01930)
  br label %31

31:                                               ; preds = %.loopexit, %28
  ret void
}